; Function Attrs: mustprogress uwtable
define hidden noundef zeroext i1 @_ZN11user_solver6solver10post_visitEP4exprbb(ptr noundef nonnull align 8 dereferenceable(492) %this, ptr noundef %e, i1 zeroext %sign, i1 zeroext %root) unnamed_addr #3 align 2 {
entry:
  %__args.addr.i = alloca ptr, align 8
  %__args.addr2.i = alloca ptr, align 8
  %__args.addr4.i = alloca ptr, align 8
  %call = tail call noundef ptr @_ZNK3euf13th_euf_solver10expr2enodeEP4expr(ptr noundef nonnull align 8 dereferenceable(108) %this, ptr noundef %e)
  %tobool.not = icmp eq ptr %call, null
  br i1 %tobool.not, label %if.then, label %if.end

if.then:                                          ; preds = %entry
  %call3 = tail call noundef ptr @_ZN3euf13th_euf_solver8mk_enodeEP4exprb(ptr noundef nonnull align 8 dereferenceable(108) %this, ptr noundef %e, i1 noundef zeroext false)
  br label %if.end

if.end:                                           ; preds = %if.then, %entry
  tail call void @_ZN11user_solver6solver8add_exprEP4expr(ptr noundef nonnull align 8 dereferenceable(492) %this, ptr noundef %e)
  %_M_manager.i.i = getelementptr inbounds i8, ptr %this, i64 368
  %0 = load ptr, ptr %_M_manager.i.i, align 8
  %tobool.not.i.i.not = icmp eq ptr %0, null
  br i1 %tobool.not.i.i.not, label %if.end7, label %_ZNKSt8functionIFvPvPN15user_propagator8callbackEP4exprEEclES0_S3_S5_.exit

_ZNKSt8functionIFvPvPN15user_propagator8callbackEP4exprEEclES0_S3_S5_.exit: ; preds = %if.end
  %m_created_eh = getelementptr inbounds i8, ptr %this, i64 352
  %m_user_context = getelementptr inbounds i8, ptr %this, i64 120
  %1 = load ptr, ptr %m_user_context, align 8
  %add.ptr = getelementptr inbounds i8, ptr %this, i64 112
  call void @llvm.lifetime.start.p0(i64 8, ptr nonnull %__args.addr.i)
  call void @llvm.lifetime.start.p0(i64 8, ptr nonnull %__args.addr2.i)
  call void @llvm.lifetime.start.p0(i64 8, ptr nonnull %__args.addr4.i)
  store ptr %1, ptr %__args.addr.i, align 8
  store ptr %add.ptr, ptr %__args.addr2.i, align 8
  store ptr %e, ptr %__args.addr4.i, align 8
  %_M_invoker.i = getelementptr inbounds i8, ptr %this, i64 376
  %2 = load ptr, ptr %_M_invoker.i, align 8
  call void %2(ptr noundef nonnull align 8 dereferenceable(16) %m_created_eh, ptr noundef nonnull align 8 dereferenceable(8) %__args.addr.i, ptr noundef nonnull align 8 dereferenceable(8) %__args.addr2.i, ptr noundef nonnull align 8 dereferenceable(8) %__args.addr4.i)
  call void @llvm.lifetime.end.p0(i64 8, ptr nonnull %__args.addr.i)
  call void @llvm.lifetime.end.p0(i64 8, ptr nonnull %__args.addr2.i)
  call void @llvm.lifetime.end.p0(i64 8, ptr nonnull %__args.addr4.i)
  br label %if.end7

if.end7:                                          ; preds = %_ZNKSt8functionIFvPvPN15user_propagator8callbackEP4exprEEclES0_S3_S5_.exit, %if.end
  ret i1 true
}